target datalayout = "e-m:e-p270:32:32-p271:32:32-p272:64:64-i64:64-i128:128-f80:128-n8:16:32:64-S128"
target triple = "x86_64-pc-linux-gnu"

%"class.std::filesystem::__cxx11::path" = type { %"class.std::__cxx11::basic_string", %"struct.std::filesystem::__cxx11::path::_List" }
%"class.std::__cxx11::basic_string" = type { %"struct.std::__cxx11::basic_string<char>::_Alloc_hider", i64, %union.anon }
%"struct.std::__cxx11::basic_string<char>::_Alloc_hider" = type { ptr }
%union.anon = type { i64, [8 x i8] }
%"struct.std::filesystem::__cxx11::path::_List" = type { %"class.std::unique_ptr" }
%"class.std::unique_ptr" = type { %"struct.std::__uniq_ptr_data" }
%"struct.std::__uniq_ptr_data" = type { %"class.std::__uniq_ptr_impl" }
%"class.std::__uniq_ptr_impl" = type { %"class.std::tuple" }
%"class.std::tuple" = type { %"struct.std::_Tuple_impl" }
%"struct.std::_Tuple_impl" = type { %"struct.std::_Head_base.1" }
%"struct.std::_Head_base.1" = type { ptr }
%struct.gmx_fft = type { [2 x [2 x [2 x ptr]]], i32, i32 }

@.str = private unnamed_addr constant [123 x i8] c"generated/home/dtcxzyw/WorkSpace/Projects/compilers/llvm-opt-benchmark/bench/gromacs/gromacs/src/gromacs/fft/fft_fftw3.cpp\00", align 1
@.str.5 = private unnamed_addr constant [43 x i8] c"FFT plan mismatch - bad plan or direction.\00", align 1

; Function Attrs: mustprogress uwtable
define noundef i32 @_Z10gmx_fft_1dP7gmx_fft17gmx_fft_directionPvS2_(ptr noundef %0, i32 noundef %1, ptr noundef %2, ptr noundef %3) #0 personality ptr @__gxx_personality_v0 {
  %5 = alloca ptr, align 8
  %6 = alloca i32, align 4
  %7 = alloca ptr, align 8
  %8 = alloca ptr, align 8
  %9 = alloca i8, align 1
  %10 = alloca i8, align 1
  %11 = alloca i8, align 1
  %12 = alloca %"class.std::filesystem::__cxx11::path", align 8
  %13 = alloca ptr, align 8
  %14 = alloca i32, align 4
  store ptr %0, ptr %5, align 8, !tbaa !12
  store i32 %1, ptr %6, align 4, !tbaa !92
  store ptr %2, ptr %7, align 8, !tbaa !85
  store ptr %3, ptr %8, align 8, !tbaa !85
  call void @llvm.lifetime.start.p0(i64 1, ptr %9) #13
  %15 = load ptr, ptr %7, align 8, !tbaa !85
  %16 = ptrtoint ptr %15 to i64
  %17 = load ptr, ptr %8, align 8, !tbaa !85
  %18 = ptrtoint ptr %17 to i64
  %19 = or i64 %16, %18
  %20 = and i64 %19, 15
  %21 = icmp eq i64 %20, 0
  %22 = zext i1 %21 to i8
  store i8 %22, ptr %9, align 1, !tbaa !94
  call void @llvm.lifetime.start.p0(i64 1, ptr %10) #13
  %23 = load ptr, ptr %7, align 8, !tbaa !85
  %24 = load ptr, ptr %8, align 8, !tbaa !85
  %25 = icmp eq ptr %23, %24
  %26 = zext i1 %25 to i8
  store i8 %26, ptr %10, align 1, !tbaa !94
  call void @llvm.lifetime.start.p0(i64 1, ptr %11) #13
  %27 = load i32, ptr %6, align 4, !tbaa !92
  %28 = icmp eq i32 %27, 0
  %29 = zext i1 %28 to i8
  store i8 %29, ptr %11, align 1, !tbaa !94
  %30 = load ptr, ptr %5, align 8, !tbaa !12
  %31 = getelementptr inbounds nuw %struct.gmx_fft, ptr %30, i32 0, i32 1
  %32 = load i32, ptr %31, align 8, !tbaa !26
  %33 = icmp eq i32 %32, 1
  br i1 %33, label %45, label %34

34:                                               ; preds = %4
  %35 = load ptr, ptr %5, align 8, !tbaa !12
  %36 = getelementptr inbounds nuw %struct.gmx_fft, ptr %35, i32 0, i32 2
  %37 = load i32, ptr %36, align 4, !tbaa !28
  %38 = icmp ne i32 %37, 1
  br i1 %38, label %45, label %39

39:                                               ; preds = %34
  %40 = load i32, ptr %6, align 4, !tbaa !92
  %41 = icmp ne i32 %40, 0
  br i1 %41, label %42, label %51

42:                                               ; preds = %39
  %43 = load i32, ptr %6, align 4, !tbaa !92
  %44 = icmp ne i32 %43, 1
  br i1 %44, label %45, label %51

45:                                               ; preds = %42, %34, %4
  call void @llvm.lifetime.start.p0(i64 40, ptr %12) #13
  call void @_ZNSt10filesystem7__cxx114pathC2IA123_cS1_EERKT_NS1_6formatE(ptr noundef nonnull align 8 dereferenceable(40) %12, ptr noundef nonnull align 1 dereferenceable(123) @.str, i8 noundef zeroext 2)
  invoke void (i32, ptr, i32, ptr, ...) @_Z9gmx_fataliRKNSt10filesystem7__cxx114pathEiPKcz(i32 noundef 0, ptr noundef nonnull align 8 dereferenceable(40) %12, i32 noundef 549, ptr noundef @.str.5) #14
          to label %46 unwind label %47

46:                                               ; preds = %45
  unreachable

47:                                               ; preds = %45
  %48 = landingpad { ptr, i32 }
          cleanup
  %49 = extractvalue { ptr, i32 } %48, 0
  store ptr %49, ptr %13, align 8
  %50 = extractvalue { ptr, i32 } %48, 1
  store i32 %50, ptr %14, align 4
  call void @_ZNSt10filesystem7__cxx114pathD2Ev(ptr noundef nonnull align 8 dereferenceable(40) %12) #13
  call void @llvm.lifetime.end.p0(i64 40, ptr %12) #13
  call void @llvm.lifetime.end.p0(i64 1, ptr %11) #13
  call void @llvm.lifetime.end.p0(i64 1, ptr %10) #13
  call void @llvm.lifetime.end.p0(i64 1, ptr %9) #13
  br label %69

51:                                               ; preds = %42, %39
  %52 = load ptr, ptr %5, align 8, !tbaa !12
  %53 = getelementptr inbounds nuw %struct.gmx_fft, ptr %52, i32 0, i32 0
  %54 = load i8, ptr %9, align 1, !tbaa !94, !range !96, !noundef !97
  %55 = trunc i8 %54 to i1
  %56 = zext i1 %55 to i64
  %57 = getelementptr inbounds nuw [2 x [2 x [2 x ptr]]], ptr %53, i64 0, i64 %56
  %58 = load i8, ptr %10, align 1, !tbaa !94, !range !96, !noundef !97
  %59 = trunc i8 %58 to i1
  %60 = zext i1 %59 to i64
  %61 = getelementptr inbounds nuw [2 x [2 x ptr]], ptr %57, i64 0, i64 %60
  %62 = load i8, ptr %11, align 1, !tbaa !94, !range !96, !noundef !97
  %63 = trunc i8 %62 to i1
  %64 = zext i1 %63 to i64
  %65 = getelementptr inbounds nuw [2 x ptr], ptr %61, i64 0, i64 %64
  %66 = load ptr, ptr %65, align 8, !tbaa !20
  %67 = load ptr, ptr %7, align 8, !tbaa !85
  %68 = load ptr, ptr %8, align 8, !tbaa !85
  call void @fftwf_execute_dft(ptr noundef %66, ptr noundef %67, ptr noundef %68)
  call void @llvm.lifetime.end.p0(i64 1, ptr %11) #13
  call void @llvm.lifetime.end.p0(i64 1, ptr %10) #13
  call void @llvm.lifetime.end.p0(i64 1, ptr %9) #13
  ret i32 0

69:                                               ; preds = %47
  %70 = load ptr, ptr %13, align 8
  %71 = load i32, ptr %14, align 4
  %72 = insertvalue { ptr, i32 } poison, ptr %70, 0
  %73 = insertvalue { ptr, i32 } %72, i32 %71, 1
  resume { ptr, i32 } %73
}

; Function Attrs: mustprogress uwtable
define noundef i32 @_Z15gmx_fft_many_1dP7gmx_fft17gmx_fft_directionPvS2_(ptr noundef %0, i32 noundef %1, ptr noundef %2, ptr noundef %3) #0 {
  %5 = alloca ptr, align 8
  %6 = alloca i32, align 4
  %7 = alloca ptr, align 8
  %8 = alloca ptr, align 8
  store ptr %0, ptr %5, align 8, !tbaa !12
  store i32 %1, ptr %6, align 4, !tbaa !92
  store ptr %2, ptr %7, align 8, !tbaa !85
  store ptr %3, ptr %8, align 8, !tbaa !85
  %9 = load ptr, ptr %5, align 8, !tbaa !12
  %10 = load i32, ptr %6, align 4, !tbaa !92
  %11 = load ptr, ptr %7, align 8, !tbaa !85
  %12 = load ptr, ptr %8, align 8, !tbaa !85
  %13 = call noundef i32 @_Z10gmx_fft_1dP7gmx_fft17gmx_fft_directionPvS2_(ptr noundef %9, i32 noundef %10, ptr noundef %11, ptr noundef %12)
  ret i32 %13
}